target datalayout = "e-m:e-p270:32:32-p271:32:32-p272:64:64-i64:64-i128:128-f80:128-n8:16:32:64-S128"
target triple = "x86_64-unknown-linux-gnu"

%"class.icu_75::UObject" = type { ptr }
%"class.icu_75::FilteredNormalizer2" = type { %"class.icu_75::Normalizer2", ptr, ptr }
%"class.icu_75::Normalizer2" = type { %"class.icu_75::UObject" }
%"class.icu_75::StringPiece" = type <{ ptr, i32, [4 x i8] }>

; Function Attrs: mustprogress nounwind uwtable
define internal noundef signext i8 @_ZL9U_FAILURE10UErrorCode(i32 noundef %code) #0 {
entry:
  %code.addr = alloca i32, align 4
  store i32 %code, ptr %code.addr, align 4
  %0 = load i32, ptr %code.addr, align 4
  %cmp = icmp sgt i32 %0, 0
  %conv = zext i1 %cmp to i8
  ret i8 %conv
}

; Function Attrs: mustprogress nounwind uwtable
define linkonce_odr void @_ZN6icu_7511StringPieceC2EPKci(ptr noundef nonnull align 8 dereferenceable(12) %this, ptr noundef %offset, i32 noundef %len) unnamed_addr #0 comdat align 2 {
entry:
  %this.addr = alloca ptr, align 8
  %offset.addr = alloca ptr, align 8
  %len.addr = alloca i32, align 4
  store ptr %this, ptr %this.addr, align 8
  store ptr %offset, ptr %offset.addr, align 8
  store i32 %len, ptr %len.addr, align 4
  %this1 = load ptr, ptr %this.addr, align 8
  %ptr_ = getelementptr inbounds %"class.icu_75::StringPiece", ptr %this1, i32 0, i32 0
  %0 = load ptr, ptr %offset.addr, align 8
  store ptr %0, ptr %ptr_, align 8
  %length_ = getelementptr inbounds %"class.icu_75::StringPiece", ptr %this1, i32 0, i32 1
  %1 = load i32, ptr %len.addr, align 4
  store i32 %1, ptr %length_, align 8
  ret void
}

; Function Attrs: mustprogress uwtable
define void @_ZNK6icu_7519FilteredNormalizer213normalizeUTF8EjPKciRNS_8ByteSinkEPNS_5EditsE17USetSpanConditionR10UErrorCode(ptr noundef nonnull align 8 dereferenceable(24) %this, i32 noundef %options, ptr noundef %src, i32 noundef %length, ptr noundef nonnull align 8 dereferenceable(8) %sink, ptr noundef %edits, i32 noundef %spanCondition, ptr noundef nonnull align 4 dereferenceable(4) %errorCode) #2 align 2 {
entry:
  %this.addr = alloca ptr, align 8
  %options.addr = alloca i32, align 4
  %src.addr = alloca ptr, align 8
  %length.addr = alloca i32, align 4
  %sink.addr = alloca ptr, align 8
  %edits.addr = alloca ptr, align 8
  %spanCondition.addr = alloca i32, align 4
  %errorCode.addr = alloca ptr, align 8
  %spanLength = alloca i32, align 4
  %agg.tmp = alloca %"class.icu_75::StringPiece", align 8
  store ptr %this, ptr %this.addr, align 8
  store i32 %options, ptr %options.addr, align 4
  store ptr %src, ptr %src.addr, align 8
  store i32 %length, ptr %length.addr, align 4
  store ptr %sink, ptr %sink.addr, align 8
  store ptr %edits, ptr %edits.addr, align 8
  store i32 %spanCondition, ptr %spanCondition.addr, align 4
  store ptr %errorCode, ptr %errorCode.addr, align 8
  %this1 = load ptr, ptr %this.addr, align 8
  br label %while.cond

while.cond:                                       ; preds = %if.end19, %entry
  %0 = load i32, ptr %length.addr, align 4
  %cmp = icmp sgt i32 %0, 0
  br i1 %cmp, label %while.body, label %while.end

while.body:                                       ; preds = %while.cond
  %set = getelementptr inbounds %"class.icu_75::FilteredNormalizer2", ptr %this1, i32 0, i32 2
  %1 = load ptr, ptr %set, align 8
  %2 = load ptr, ptr %src.addr, align 8
  %3 = load i32, ptr %length.addr, align 4
  %4 = load i32, ptr %spanCondition.addr, align 4
  %call = call noundef i32 @_ZNK6icu_7510UnicodeSet8spanUTF8EPKci17USetSpanCondition(ptr noundef nonnull align 8 dereferenceable(200) %1, ptr noundef %2, i32 noundef %3, i32 noundef %4)
  store i32 %call, ptr %spanLength, align 4
  %5 = load i32, ptr %spanCondition.addr, align 4
  %cmp2 = icmp eq i32 %5, 0
  br i1 %cmp2, label %if.then, label %if.else

if.then:                                          ; preds = %while.body
  %6 = load i32, ptr %spanLength, align 4
  %cmp3 = icmp ne i32 %6, 0
  br i1 %cmp3, label %if.then4, label %if.end10

if.then4:                                         ; preds = %if.then
  %7 = load ptr, ptr %edits.addr, align 8
  %cmp5 = icmp ne ptr %7, null
  br i1 %cmp5, label %if.then6, label %if.end

if.then6:                                         ; preds = %if.then4
  %8 = load ptr, ptr %edits.addr, align 8
  %9 = load i32, ptr %spanLength, align 4
  call void @_ZN6icu_755Edits12addUnchangedEi(ptr noundef nonnull align 8 dereferenceable(232) %8, i32 noundef %9)
  br label %if.end

if.end:                                           ; preds = %if.then6, %if.then4
  %10 = load i32, ptr %options.addr, align 4
  %and = and i32 %10, 16384
  %cmp7 = icmp eq i32 %and, 0
  br i1 %cmp7, label %if.then8, label %if.end9

if.then8:                                         ; preds = %if.end
  %11 = load ptr, ptr %sink.addr, align 8
  %12 = load ptr, ptr %src.addr, align 8
  %13 = load i32, ptr %spanLength, align 4
  %vtable = load ptr, ptr %11, align 8
  %vfn = getelementptr inbounds ptr, ptr %vtable, i64 2
  %14 = load ptr, ptr %vfn, align 8
  call void %14(ptr noundef nonnull align 8 dereferenceable(8) %11, ptr noundef %12, i32 noundef %13)
  br label %if.end9

if.end9:                                          ; preds = %if.then8, %if.end
  br label %if.end10

if.end10:                                         ; preds = %if.end9, %if.then
  store i32 2, ptr %spanCondition.addr, align 4
  br label %if.end19

if.else:                                          ; preds = %while.body
  %15 = load i32, ptr %spanLength, align 4
  %cmp11 = icmp ne i32 %15, 0
  br i1 %cmp11, label %if.then12, label %if.end18

if.then12:                                        ; preds = %if.else
  %norm2 = getelementptr inbounds %"class.icu_75::FilteredNormalizer2", ptr %this1, i32 0, i32 1
  %16 = load ptr, ptr %norm2, align 8
  %17 = load i32, ptr %options.addr, align 4
  %18 = load ptr, ptr %src.addr, align 8
  %19 = load i32, ptr %spanLength, align 4
  call void @_ZN6icu_7511StringPieceC2EPKci(ptr noundef nonnull align 8 dereferenceable(12) %agg.tmp, ptr noundef %18, i32 noundef %19)
  %20 = load ptr, ptr %sink.addr, align 8
  %21 = load ptr, ptr %edits.addr, align 8
  %22 = load ptr, ptr %errorCode.addr, align 8
  %23 = getelementptr inbounds { ptr, i32 }, ptr %agg.tmp, i32 0, i32 0
  %24 = load ptr, ptr %23, align 8
  %25 = getelementptr inbounds { ptr, i32 }, ptr %agg.tmp, i32 0, i32 1
  %26 = load i32, ptr %25, align 8
  %vtable13 = load ptr, ptr %16, align 8
  %vfn14 = getelementptr inbounds ptr, ptr %vtable13, i64 4
  %27 = load ptr, ptr %vfn14, align 8
  call void %27(ptr noundef nonnull align 8 dereferenceable(8) %16, i32 noundef %17, ptr %24, i32 %26, ptr noundef nonnull align 8 dereferenceable(8) %20, ptr noundef %21, ptr noundef nonnull align 4 dereferenceable(4) %22)
  %28 = load ptr, ptr %errorCode.addr, align 8
  %29 = load i32, ptr %28, align 4
  %call15 = call noundef signext i8 @_ZL9U_FAILURE10UErrorCode(i32 noundef %29)
  %tobool = icmp ne i8 %call15, 0
  br i1 %tobool, label %if.then16, label %if.end17

if.then16:                                        ; preds = %if.then12
  br label %while.end

if.end17:                                         ; preds = %if.then12
  br label %if.end18

if.end18:                                         ; preds = %if.end17, %if.else
  store i32 0, ptr %spanCondition.addr, align 4
  br label %if.end19

if.end19:                                         ; preds = %if.end18, %if.end10
  %30 = load i32, ptr %spanLength, align 4
  %31 = load ptr, ptr %src.addr, align 8
  %idx.ext = sext i32 %30 to i64
  %add.ptr = getelementptr inbounds i8, ptr %31, i64 %idx.ext
  store ptr %add.ptr, ptr %src.addr, align 8
  %32 = load i32, ptr %spanLength, align 4
  %33 = load i32, ptr %length.addr, align 4
  %sub = sub nsw i32 %33, %32
  store i32 %sub, ptr %length.addr, align 4
  br label %while.cond, !llvm.loop !6

while.end:                                        ; preds = %if.then16, %while.cond
  ret void
}