; Function Attrs: mustprogress uwtable
define void @_ZNK6icu_7519FilteredNormalizer213normalizeUTF8EjPKciRNS_8ByteSinkEPNS_5EditsE17USetSpanConditionR10UErrorCode(ptr nocapture noundef nonnull readonly align 8 dereferenceable(24) %this, i32 noundef %options, ptr noundef %src, i32 noundef %length, ptr noundef nonnull align 8 dereferenceable(8) %sink, ptr noundef %edits, i32 noundef %spanCondition, ptr noundef nonnull align 4 dereferenceable(4) %errorCode) local_unnamed_addr #2 align 2 {
entry:
  %norm2 = getelementptr inbounds i8, ptr %this, i64 8
  %cmp18 = icmp sgt i32 %length, 0
  br i1 %cmp18, label %while.body.lr.ph, label %while.end

while.body.lr.ph:                                 ; preds = %entry
  %set = getelementptr inbounds i8, ptr %this, i64 16
  %cmp5.not = icmp eq ptr %edits, null
  %and = and i32 %options, 16384
  %cmp7 = icmp eq i32 %and, 0
  br i1 %cmp7, label %while.body.lr.ph.split.us, label %while.body.lr.ph.split

while.body.lr.ph.split.us:                        ; preds = %while.body.lr.ph
  br i1 %cmp5.not, label %while.body.us.us, label %while.body.us

while.body.us.us:                                 ; preds = %while.body.lr.ph.split.us, %if.end19.us.us
  %src.addr.021.us.us = phi ptr [ %add.ptr.us.us, %if.end19.us.us ], [ %src, %while.body.lr.ph.split.us ]
  %length.addr.020.us.us = phi i32 [ %sub.us.us, %if.end19.us.us ], [ %length, %while.body.lr.ph.split.us ]
  %spanCondition.addr.019.us.us = phi i32 [ %spanCondition.addr.1.us.us, %if.end19.us.us ], [ %spanCondition, %while.body.lr.ph.split.us ]
  %0 = load ptr, ptr %set, align 8
  %call.us.us = tail call noundef i32 @_ZNK6icu_7510UnicodeSet8spanUTF8EPKci17USetSpanCondition(ptr noundef nonnull align 8 dereferenceable(200) %0, ptr noundef %src.addr.021.us.us, i32 noundef %length.addr.020.us.us, i32 noundef %spanCondition.addr.019.us.us)
  %cmp2.us.us = icmp eq i32 %spanCondition.addr.019.us.us, 0
  %cmp3.not.us.us = icmp eq i32 %call.us.us, 0
  br i1 %cmp2.us.us, label %if.then.us.us, label %if.else.us.us

if.else.us.us:                                    ; preds = %while.body.us.us
  br i1 %cmp3.not.us.us, label %if.end19.us.us, label %if.then12.us.us

if.then12.us.us:                                  ; preds = %if.else.us.us
  %1 = load ptr, ptr %norm2, align 8
  %vtable13.us.us = load ptr, ptr %1, align 8
  %vfn14.us.us = getelementptr inbounds i8, ptr %vtable13.us.us, i64 32
  %2 = load ptr, ptr %vfn14.us.us, align 8
  tail call void %2(ptr noundef nonnull align 8 dereferenceable(8) %1, i32 noundef %options, ptr %src.addr.021.us.us, i32 %call.us.us, ptr noundef nonnull align 8 dereferenceable(8) %sink, ptr noundef null, ptr noundef nonnull align 4 dereferenceable(4) %errorCode)
  %3 = load i32, ptr %errorCode, align 4
  %cmp.i.us.us = icmp slt i32 %3, 1
  br i1 %cmp.i.us.us, label %if.end19.us.us, label %while.end

if.then.us.us:                                    ; preds = %while.body.us.us
  br i1 %cmp3.not.us.us, label %if.end19.us.us, label %if.then4.us.us

if.then4.us.us:                                   ; preds = %if.then.us.us
  %vtable.us.us = load ptr, ptr %sink, align 8
  %vfn.us.us = getelementptr inbounds i8, ptr %vtable.us.us, i64 16
  %4 = load ptr, ptr %vfn.us.us, align 8
  tail call void %4(ptr noundef nonnull align 8 dereferenceable(8) %sink, ptr noundef %src.addr.021.us.us, i32 noundef %call.us.us)
  br label %if.end19.us.us

if.end19.us.us:                                   ; preds = %if.then4.us.us, %if.then.us.us, %if.then12.us.us, %if.else.us.us
  %spanCondition.addr.1.us.us = phi i32 [ 2, %if.then4.us.us ], [ 2, %if.then.us.us ], [ 0, %if.then12.us.us ], [ 0, %if.else.us.us ]
  %idx.ext.us.us = sext i32 %call.us.us to i64
  %add.ptr.us.us = getelementptr inbounds i8, ptr %src.addr.021.us.us, i64 %idx.ext.us.us
  %sub.us.us = sub nsw i32 %length.addr.020.us.us, %call.us.us
  %cmp.us.us = icmp sgt i32 %sub.us.us, 0
  br i1 %cmp.us.us, label %while.body.us.us, label %while.end, !llvm.loop !6

while.body.us:                                    ; preds = %while.body.lr.ph.split.us, %if.end19.us
  %src.addr.021.us = phi ptr [ %add.ptr.us, %if.end19.us ], [ %src, %while.body.lr.ph.split.us ]
  %length.addr.020.us = phi i32 [ %sub.us, %if.end19.us ], [ %length, %while.body.lr.ph.split.us ]
  %spanCondition.addr.019.us = phi i32 [ %spanCondition.addr.1.us, %if.end19.us ], [ %spanCondition, %while.body.lr.ph.split.us ]
  %5 = load ptr, ptr %set, align 8
  %call.us = tail call noundef i32 @_ZNK6icu_7510UnicodeSet8spanUTF8EPKci17USetSpanCondition(ptr noundef nonnull align 8 dereferenceable(200) %5, ptr noundef %src.addr.021.us, i32 noundef %length.addr.020.us, i32 noundef %spanCondition.addr.019.us)
  %cmp2.us = icmp eq i32 %spanCondition.addr.019.us, 0
  %cmp3.not.us = icmp eq i32 %call.us, 0
  br i1 %cmp2.us, label %if.then.us, label %if.else.us

if.else.us:                                       ; preds = %while.body.us
  br i1 %cmp3.not.us, label %if.end19.us, label %if.then12.us

if.then12.us:                                     ; preds = %if.else.us
  %6 = load ptr, ptr %norm2, align 8
  %vtable13.us = load ptr, ptr %6, align 8
  %vfn14.us = getelementptr inbounds i8, ptr %vtable13.us, i64 32
  %7 = load ptr, ptr %vfn14.us, align 8
  tail call void %7(ptr noundef nonnull align 8 dereferenceable(8) %6, i32 noundef %options, ptr %src.addr.021.us, i32 %call.us, ptr noundef nonnull align 8 dereferenceable(8) %sink, ptr noundef nonnull %edits, ptr noundef nonnull align 4 dereferenceable(4) %errorCode)
  %8 = load i32, ptr %errorCode, align 4
  %cmp.i.us = icmp slt i32 %8, 1
  br i1 %cmp.i.us, label %if.end19.us, label %while.end

if.then.us:                                       ; preds = %while.body.us
  br i1 %cmp3.not.us, label %if.end19.us, label %if.then4.us

if.then4.us:                                      ; preds = %if.then.us
  tail call void @_ZN6icu_755Edits12addUnchangedEi(ptr noundef nonnull align 8 dereferenceable(232) %edits, i32 noundef %call.us)
  %vtable.us = load ptr, ptr %sink, align 8
  %vfn.us = getelementptr inbounds i8, ptr %vtable.us, i64 16
  %9 = load ptr, ptr %vfn.us, align 8
  tail call void %9(ptr noundef nonnull align 8 dereferenceable(8) %sink, ptr noundef %src.addr.021.us, i32 noundef %call.us)
  br label %if.end19.us

if.end19.us:                                      ; preds = %if.then4.us, %if.then.us, %if.then12.us, %if.else.us
  %spanCondition.addr.1.us = phi i32 [ 2, %if.then4.us ], [ 2, %if.then.us ], [ 0, %if.then12.us ], [ 0, %if.else.us ]
  %idx.ext.us = sext i32 %call.us to i64
  %add.ptr.us = getelementptr inbounds i8, ptr %src.addr.021.us, i64 %idx.ext.us
  %sub.us = sub nsw i32 %length.addr.020.us, %call.us
  %cmp.us = icmp sgt i32 %sub.us, 0
  br i1 %cmp.us, label %while.body.us, label %while.end, !llvm.loop !6

while.body.lr.ph.split:                           ; preds = %while.body.lr.ph
  br i1 %cmp5.not, label %while.body.us22, label %while.body

while.body.us22:                                  ; preds = %while.body.lr.ph.split, %if.end19.us38
  %src.addr.021.us23 = phi ptr [ %add.ptr.us41, %if.end19.us38 ], [ %src, %while.body.lr.ph.split ]
  %length.addr.020.us24 = phi i32 [ %sub.us42, %if.end19.us38 ], [ %length, %while.body.lr.ph.split ]
  %spanCondition.addr.019.us25 = phi i32 [ %spanCondition.addr.1.us39, %if.end19.us38 ], [ %spanCondition, %while.body.lr.ph.split ]
  %10 = load ptr, ptr %set, align 8
  %call.us26 = tail call noundef i32 @_ZNK6icu_7510UnicodeSet8spanUTF8EPKci17USetSpanCondition(ptr noundef nonnull align 8 dereferenceable(200) %10, ptr noundef %src.addr.021.us23, i32 noundef %length.addr.020.us24, i32 noundef %spanCondition.addr.019.us25)
  %cmp2.us27 = icmp eq i32 %spanCondition.addr.019.us25, 0
  br i1 %cmp2.us27, label %if.end19.us38, label %if.else.us28

if.else.us28:                                     ; preds = %while.body.us22
  %cmp11.not.us29 = icmp eq i32 %call.us26, 0
  br i1 %cmp11.not.us29, label %if.end19.us38, label %if.then12.us30

if.then12.us30:                                   ; preds = %if.else.us28
  %11 = load ptr, ptr %norm2, align 8
  %vtable13.us31 = load ptr, ptr %11, align 8
  %vfn14.us32 = getelementptr inbounds i8, ptr %vtable13.us31, i64 32
  %12 = load ptr, ptr %vfn14.us32, align 8
  tail call void %12(ptr noundef nonnull align 8 dereferenceable(8) %11, i32 noundef %options, ptr %src.addr.021.us23, i32 %call.us26, ptr noundef nonnull align 8 dereferenceable(8) %sink, ptr noundef null, ptr noundef nonnull align 4 dereferenceable(4) %errorCode)
  %13 = load i32, ptr %errorCode, align 4
  %cmp.i.us33 = icmp slt i32 %13, 1
  br i1 %cmp.i.us33, label %if.end19.us38, label %while.end

if.end19.us38:                                    ; preds = %while.body.us22, %if.then12.us30, %if.else.us28
  %spanCondition.addr.1.us39 = phi i32 [ 0, %if.then12.us30 ], [ 0, %if.else.us28 ], [ 2, %while.body.us22 ]
  %idx.ext.us40 = sext i32 %call.us26 to i64
  %add.ptr.us41 = getelementptr inbounds i8, ptr %src.addr.021.us23, i64 %idx.ext.us40
  %sub.us42 = sub nsw i32 %length.addr.020.us24, %call.us26
  %cmp.us43 = icmp sgt i32 %sub.us42, 0
  br i1 %cmp.us43, label %while.body.us22, label %while.end, !llvm.loop !6

while.body:                                       ; preds = %while.body.lr.ph.split, %if.end19
  %src.addr.021 = phi ptr [ %add.ptr, %if.end19 ], [ %src, %while.body.lr.ph.split ]
  %length.addr.020 = phi i32 [ %sub, %if.end19 ], [ %length, %while.body.lr.ph.split ]
  %spanCondition.addr.019 = phi i32 [ %spanCondition.addr.1, %if.end19 ], [ %spanCondition, %while.body.lr.ph.split ]
  %14 = load ptr, ptr %set, align 8
  %call = tail call noundef i32 @_ZNK6icu_7510UnicodeSet8spanUTF8EPKci17USetSpanCondition(ptr noundef nonnull align 8 dereferenceable(200) %14, ptr noundef %src.addr.021, i32 noundef %length.addr.020, i32 noundef %spanCondition.addr.019)
  %cmp2 = icmp eq i32 %spanCondition.addr.019, 0
  %cmp3.not = icmp eq i32 %call, 0
  br i1 %cmp2, label %if.then, label %if.else

if.then:                                          ; preds = %while.body
  br i1 %cmp3.not, label %if.end19, label %if.then4

if.then4:                                         ; preds = %if.then
  tail call void @_ZN6icu_755Edits12addUnchangedEi(ptr noundef nonnull align 8 dereferenceable(232) %edits, i32 noundef %call)
  br label %if.end19

if.else:                                          ; preds = %while.body
  br i1 %cmp3.not, label %if.end19, label %if.then12

if.then12:                                        ; preds = %if.else
  %15 = load ptr, ptr %norm2, align 8
  %vtable13 = load ptr, ptr %15, align 8
  %vfn14 = getelementptr inbounds i8, ptr %vtable13, i64 32
  %16 = load ptr, ptr %vfn14, align 8
  tail call void %16(ptr noundef nonnull align 8 dereferenceable(8) %15, i32 noundef %options, ptr %src.addr.021, i32 %call, ptr noundef nonnull align 8 dereferenceable(8) %sink, ptr noundef nonnull %edits, ptr noundef nonnull align 4 dereferenceable(4) %errorCode)
  %17 = load i32, ptr %errorCode, align 4
  %cmp.i = icmp slt i32 %17, 1
  br i1 %cmp.i, label %if.end19, label %while.end

if.end19:                                         ; preds = %if.then4, %if.else, %if.then12, %if.then
  %spanCondition.addr.1 = phi i32 [ 2, %if.then4 ], [ 2, %if.then ], [ 0, %if.then12 ], [ 0, %if.else ]
  %idx.ext = sext i32 %call to i64
  %add.ptr = getelementptr inbounds i8, ptr %src.addr.021, i64 %idx.ext
  %sub = sub nsw i32 %length.addr.020, %call
  %cmp = icmp sgt i32 %sub, 0
  br i1 %cmp, label %while.body, label %while.end, !llvm.loop !6

while.end:                                        ; preds = %if.end19, %if.then12, %if.end19.us38, %if.then12.us30, %if.end19.us, %if.then12.us, %if.end19.us.us, %if.then12.us.us, %entry
  ret void
}